target datalayout = "e-m:e-p270:32:32-p271:32:32-p272:64:64-i64:64-i128:128-f80:128-n8:16:32:64-S128"
target triple = "x86_64-pc-linux-gnu"

%struct.cbc_cipher_handles = type { i32, ptr }

@lib_code = internal global i32 0, align 4
@error_loaded = internal global i32 0, align 4
@cbc_handle = internal global [3 x { i32, [4 x i8], ptr }] [{ i32, [4 x i8], ptr } { i32 16, [4 x i8] zeroinitializer, ptr null }, { i32, [4 x i8], ptr } { i32 24, [4 x i8] zeroinitializer, ptr null }, { i32, [4 x i8], ptr } { i32 32, [4 x i8] zeroinitializer, ptr null }], align 16

; Function Attrs: nounwind uwtable
define internal i32 @free_cbc() #0 {
  %1 = alloca i16, align 2
  call void @llvm.lifetime.start.p0(i64 2, ptr %1) #11
  store i16 0, ptr %1, align 2, !tbaa !26
  br label %2

2:                                                ; preds = %16, %0
  %3 = load i16, ptr %1, align 2, !tbaa !26
  %4 = zext i16 %3 to i64
  %5 = icmp ult i64 %4, 3
  br i1 %5, label %6, label %19

6:                                                ; preds = %2
  %7 = load i16, ptr %1, align 2, !tbaa !26
  %8 = zext i16 %7 to i64
  %9 = getelementptr inbounds nuw [3 x %struct.cbc_cipher_handles], ptr @cbc_handle, i64 0, i64 %8
  %10 = getelementptr inbounds nuw %struct.cbc_cipher_handles, ptr %9, i32 0, i32 1
  %11 = load ptr, ptr %10, align 8, !tbaa !31
  call void @EVP_CIPHER_meth_free(ptr noundef %11)
  %12 = load i16, ptr %1, align 2, !tbaa !26
  %13 = zext i16 %12 to i64
  %14 = getelementptr inbounds nuw [3 x %struct.cbc_cipher_handles], ptr @cbc_handle, i64 0, i64 %13
  %15 = getelementptr inbounds nuw %struct.cbc_cipher_handles, ptr %14, i32 0, i32 1
  store ptr null, ptr %15, align 8, !tbaa !31
  br label %16

16:                                               ; preds = %6
  %17 = load i16, ptr %1, align 2, !tbaa !26
  %18 = add i16 %17, 1
  store i16 %18, ptr %1, align 2, !tbaa !26
  br label %2, !llvm.loop !112

19:                                               ; preds = %2
  call void @llvm.lifetime.end.p0(i64 2, ptr %1) #11
  ret i32 1
}

; Function Attrs: nounwind uwtable
define internal void @ERR_unload_AFALG_strings() #0 {
  %1 = load i32, ptr @error_loaded, align 4, !tbaa !20
  %2 = icmp ne i32 %1, 0
  br i1 %2, label %3, label %6

3:                                                ; preds = %0
  %4 = load i32, ptr @lib_code, align 4, !tbaa !20
  %5 = call i32 @ERR_unload_strings(i32 noundef %4, ptr noundef @AFALG_str_reasons)
  store i32 0, ptr @error_loaded, align 4, !tbaa !20
  br label %6

6:                                                ; preds = %3, %0
  ret void
}

; Function Attrs: nounwind uwtable
define internal i32 @afalg_destroy(ptr noundef %0) #0 {
  %2 = alloca ptr, align 8
  store ptr %0, ptr %2, align 8, !tbaa !7
  call void @ERR_unload_AFALG_strings()
  %3 = call i32 @free_cbc()
  ret i32 1
}