; Function Attrs: nounwind uwtable
define internal noundef i32 @afalg_destroy(ptr readnone captures(none) %0) #1 {
  %.b.i = load i1, ptr @error_loaded, align 4
  br i1 %.b.i, label %2, label %ERR_unload_AFALG_strings.exit.preheader

2:                                                ; preds = %1
  %3 = load i32, ptr @lib_code, align 4, !tbaa !12
  %4 = tail call i32 @ERR_unload_strings(i32 noundef %3, ptr noundef nonnull @AFALG_str_reasons) #13
  store i1 false, ptr @error_loaded, align 4
  br label %ERR_unload_AFALG_strings.exit.preheader

ERR_unload_AFALG_strings.exit.preheader:          ; preds = %1, %2
  br label %ERR_unload_AFALG_strings.exit

ERR_unload_AFALG_strings.exit:                    ; preds = %ERR_unload_AFALG_strings.exit.preheader, %ERR_unload_AFALG_strings.exit
  %indvars.iv.i = phi i64 [ %indvars.iv.next.i, %ERR_unload_AFALG_strings.exit ], [ 0, %ERR_unload_AFALG_strings.exit.preheader ]
  %5 = getelementptr inbounds nuw [3 x %struct.cbc_cipher_handles], ptr @cbc_handle, i64 0, i64 %indvars.iv.i, i32 1
  %6 = load ptr, ptr %5, align 8, !tbaa !19
  tail call void @EVP_CIPHER_meth_free(ptr noundef %6) #13
  store ptr null, ptr %5, align 8, !tbaa !19
  %indvars.iv.next.i = add nuw nsw i64 %indvars.iv.i, 1
  %exitcond.not.i = icmp eq i64 %indvars.iv.next.i, 3
  br i1 %exitcond.not.i, label %free_cbc.exit, label %ERR_unload_AFALG_strings.exit, !llvm.loop !22

free_cbc.exit:                                    ; preds = %ERR_unload_AFALG_strings.exit
  ret i32 1
}